; Function Attrs: mustprogress uwtable
define void @_ZNK3gmx29PositionCalculationCollection16getRequiredAtomsEP15gmx_ana_index_t(ptr noundef nonnull readonly align 8 captures(none) dereferenceable(8) %0, ptr noundef %1) local_unnamed_addr #0 align 2 {
  %3 = alloca %struct.gmx_ana_index_t, align 8
  %4 = load ptr, ptr %0, align 8, !tbaa !84
  %5 = getelementptr inbounds nuw i8, ptr %4, i64 8
  %.09 = load ptr, ptr %5, align 8, !tbaa !86
  %.not10 = icmp eq ptr %.09, null
  br i1 %.not10, label %._crit_edge, label %.lr.ph

.lr.ph:                                           ; preds = %2, %13
  %.011 = phi ptr [ %.0, %13 ], [ %.09, %2 ]
  %6 = getelementptr inbounds nuw i8, ptr %.011, i64 104
  %7 = load ptr, ptr %6, align 8, !tbaa !80
  %.not8 = icmp eq ptr %7, null
  br i1 %.not8, label %8, label %13

8:                                                ; preds = %.lr.ph
  call void @llvm.lifetime.start.p0(i64 24, ptr nonnull %3) #26
  %9 = getelementptr inbounds nuw i8, ptr %.011, i64 32
  %10 = load i32, ptr %9, align 8, !tbaa !88
  %11 = getelementptr inbounds nuw i8, ptr %.011, i64 40
  %12 = load ptr, ptr %11, align 8, !tbaa !77
  call void @_Z17gmx_ana_index_setP15gmx_ana_index_tiPii(ptr noundef nonnull %3, i32 noundef %10, ptr noundef %12, i32 noundef 0)
  call void @_Z28gmx_ana_index_union_unsortedP15gmx_ana_index_tS0_S0_(ptr noundef %1, ptr noundef %1, ptr noundef nonnull %3)
  call void @llvm.lifetime.end.p0(i64 24, ptr nonnull %3) #26
  br label %13

13:                                               ; preds = %8, %.lr.ph
  %14 = getelementptr inbounds nuw i8, ptr %.011, i64 112
  %.0 = load ptr, ptr %14, align 8, !tbaa !86
  %.not = icmp eq ptr %.0, null
  br i1 %.not, label %._crit_edge, label %.lr.ph, !llvm.loop !98

._crit_edge:                                      ; preds = %13, %2
  ret void
}